; Function Attrs: nofree null_pointer_is_valid sspstrong uwtable
define internal void @add_ctrl_rtd3(ptr noundef %0, i32 noundef %1) #6 {
  %.not = icmp eq i32 %1, 0
  br i1 %.not, label %3, label %5

3:                                                ; preds = %2
  %4 = tail call i32 (ptr, i64, i32, i64, ptr, ...) @__snprintf_chk(ptr noundef %0, i64 noundef 240, i32 noundef 2, i64 noundef -1, ptr noundef nonnull @.str.2057)
  br label %8

5:                                                ; preds = %2
  %.not7 = icmp eq i32 %1, 1
  %6 = select i1 %.not7, ptr @.str.2054, ptr @.str.9
  %7 = tail call i32 (ptr, i64, i32, i64, ptr, ...) @__snprintf_chk(ptr noundef %0, i64 noundef 240, i32 noundef 2, i64 noundef -1, ptr noundef nonnull @.str.2058, i32 noundef %1, i32 noundef %1, ptr noundef nonnull %6)
  br label %8

8:                                                ; preds = %5, %3
  ret void
}